target datalayout = "e-m:e-p270:32:32-p271:32:32-p272:64:64-i64:64-i128:128-f80:128-n8:16:32:64-S128"
target triple = "x86_64-unknown-linux-gnu"

%struct.BlockLimits = type { i32, i64, i32, i64, i32, i32, i32, i64, i32, i64, i64, i32, i8, i32, i32, i32, i32, i32, i32, i32 }
%struct.BlockDriverState = type { i32, i8, i8, i8, i8, i8, ptr, ptr, ptr, %struct.anon.1, i8, [4096 x i8], [4096 x i8], [4096 x i8], [16 x i8], ptr, [4096 x i8], %struct.BlockLimits, i32, i32, i32, i32, [32 x i8], %union.anon, %union.anon.2, %union.anon.3, i32, [16 x %struct.anon.4], ptr, %struct.anon.5, ptr, ptr, %struct.anon.6, ptr, ptr, i32, ptr, i64, i64, %struct.QemuMutex, %struct.anon.7, %struct.Stat64, i32, i32, i32, i32, i32, i32, %struct.QemuMutex, %struct.anon.8, %struct.CoQueue, i8, i32, i8, %struct.CoMutex, ptr, ptr }
%struct.anon.1 = type { ptr }
%union.anon = type { %struct.QTailQLink }
%struct.QTailQLink = type { ptr, ptr }
%union.anon.2 = type { %struct.QTailQLink }
%union.anon.3 = type { %struct.QTailQLink }
%struct.anon.4 = type { ptr }
%struct.anon.5 = type { ptr }
%struct.anon.6 = type { ptr }
%struct.anon.7 = type { ptr }
%struct.Stat64 = type { i64 }
%struct.QemuMutex = type { %union.pthread_mutex_t, i8 }
%union.pthread_mutex_t = type { %struct.__pthread_mutex_s }
%struct.__pthread_mutex_s = type { i32, i32, i32, i32, i32, i16, i16, %struct.__pthread_internal_list }
%struct.__pthread_internal_list = type { ptr, ptr }
%struct.anon.8 = type { ptr }
%struct.CoQueue = type { %struct.anon.9 }
%struct.anon.9 = type { ptr, ptr }
%struct.CoMutex = type { i32, ptr, %struct.anon.10, %struct.anon.10, i32, i32, ptr }
%struct.anon.10 = type { ptr }
%struct.BdrvTrackedRequest = type { ptr, i64, i64, i32, i8, i64, i64, %struct.anon.12, ptr, %struct.CoQueue, ptr }
%struct.anon.12 = type { ptr, ptr }

; Function Attrs: nounwind sspstrong uwtable
define dso_local ptr @bdrv_co_get_self_request(ptr noundef %bs) #0 {
entry:
  %retval = alloca ptr, align 8
  %bs.addr = alloca ptr, align 8
  %req = alloca ptr, align 8
  %self = alloca ptr, align 8
  store ptr %bs, ptr %bs.addr, align 8
  %call = call ptr @qemu_coroutine_self()
  store ptr %call, ptr %self, align 8
  br label %do.body

do.body:                                          ; preds = %entry
  br label %do.end

do.end:                                           ; preds = %do.body
  %0 = load ptr, ptr %bs.addr, align 8
  %tracked_requests = getelementptr inbounds %struct.BlockDriverState, ptr %0, i32 0, i32 49
  %lh_first = getelementptr inbounds %struct.anon.8, ptr %tracked_requests, i32 0, i32 0
  %1 = load ptr, ptr %lh_first, align 8
  store ptr %1, ptr %req, align 8
  br label %for.cond

for.cond:                                         ; preds = %for.inc, %do.end
  %2 = load ptr, ptr %req, align 8
  %tobool = icmp ne ptr %2, null
  br i1 %tobool, label %for.body, label %for.end

for.body:                                         ; preds = %for.cond
  %3 = load ptr, ptr %req, align 8
  %co = getelementptr inbounds %struct.BdrvTrackedRequest, ptr %3, i32 0, i32 8
  %4 = load ptr, ptr %co, align 8
  %5 = load ptr, ptr %self, align 8
  %cmp = icmp eq ptr %4, %5
  br i1 %cmp, label %if.then, label %if.end

if.then:                                          ; preds = %for.body
  %6 = load ptr, ptr %req, align 8
  store ptr %6, ptr %retval, align 8
  br label %return

if.end:                                           ; preds = %for.body
  br label %for.inc

for.inc:                                          ; preds = %if.end
  %7 = load ptr, ptr %req, align 8
  %list = getelementptr inbounds %struct.BdrvTrackedRequest, ptr %7, i32 0, i32 7
  %le_next = getelementptr inbounds %struct.anon.12, ptr %list, i32 0, i32 0
  %8 = load ptr, ptr %le_next, align 8
  store ptr %8, ptr %req, align 8
  br label %for.cond, !llvm.loop !18

for.end:                                          ; preds = %for.cond
  store ptr null, ptr %retval, align 8
  br label %return

return:                                           ; preds = %for.end, %if.then
  %9 = load ptr, ptr %retval, align 8
  ret ptr %9
}