; Function Attrs: nounwind sspstrong uwtable
define dso_local ptr @bdrv_co_get_self_request(ptr noundef readonly captures(none) %bs) #0 {
entry:
  %call = tail call ptr @qemu_coroutine_self() #15
  %tracked_requests = getelementptr inbounds nuw i8, ptr %bs, i64 17040
  %req.04 = load ptr, ptr %tracked_requests, align 8
  %tobool.not5 = icmp eq ptr %req.04, null
  br i1 %tobool.not5, label %return, label %for.body

for.body:                                         ; preds = %entry, %for.inc
  %req.06 = phi ptr [ %req.0, %for.inc ], [ %req.04, %entry ]
  %co = getelementptr inbounds nuw i8, ptr %req.06, i64 64
  %0 = load ptr, ptr %co, align 8
  %cmp = icmp eq ptr %0, %call
  br i1 %cmp, label %return, label %for.inc

for.inc:                                          ; preds = %for.body
  %list = getelementptr inbounds nuw i8, ptr %req.06, i64 48
  %req.0 = load ptr, ptr %list, align 8
  %tobool.not = icmp eq ptr %req.0, null
  br i1 %tobool.not, label %return, label %for.body, !llvm.loop !19

return:                                           ; preds = %for.body, %for.inc, %entry
  %req.0.lcssa = phi ptr [ null, %entry ], [ null, %for.inc ], [ %req.06, %for.body ]
  ret ptr %req.0.lcssa
}